; Function Attrs: mustprogress uwtable
define ptr @_ZNK13sentencepiece26ImmutableSentencePieceText6piecesEi(ptr nocapture noundef nonnull readonly align 8 dereferenceable(32) %0, i32 noundef %1) local_unnamed_addr #3 align 2 personality ptr @__gxx_personality_v0 {
  %3 = alloca %"class.sentencepiece::ImmutableSentencePieceText_ImmutableSentencePiece", align 8
  %4 = getelementptr inbounds i8, ptr %0, i64 8
  %5 = load ptr, ptr %4, align 8
  %6 = getelementptr inbounds i8, ptr %5, i64 64
  %7 = load ptr, ptr %6, align 8
  %8 = getelementptr inbounds i8, ptr %7, i64 8
  %9 = sext i32 %1 to i64
  %10 = getelementptr inbounds [268435454 x ptr], ptr %8, i64 0, i64 %9
  %11 = load ptr, ptr %10, align 8
  call void @_ZN13sentencepiece49ImmutableSentencePieceText_ImmutableSentencePieceC1ERKNS_31SentencePieceText_SentencePieceE(ptr noundef nonnull align 8 dereferenceable(8) %3, ptr noundef nonnull align 8 dereferenceable(80) %11)
  %12 = load ptr, ptr %3, align 8
  ret ptr %12
}